target datalayout = "e-m:e-p270:32:32-p271:32:32-p272:64:64-i64:64-i128:128-f80:128-n8:16:32:64-S128"
target triple = "x86_64-unknown-linux-gnu"

; Function Attrs: fn_ret_thunk_extern nounwind null_pointer_is_valid
define dso_local void @acpi_ps_delete_parse_tree(ptr noundef %0) local_unnamed_addr #0 align 16 {
  %2 = icmp eq ptr %0, null
  br i1 %2, label %21, label %3

3:                                                ; preds = %17, %1
  %4 = phi ptr [ %15, %17 ], [ null, %1 ]
  %5 = phi ptr [ %19, %17 ], [ %0, %1 ]
  br label %6

6:                                                ; preds = %9, %3
  %7 = phi ptr [ %5, %3 ], [ %10, %9 ]
  %8 = icmp eq ptr %7, %4
  br i1 %8, label %12, label %9

9:                                                ; preds = %6
  %10 = tail call ptr @acpi_ps_get_arg(ptr noundef nonnull %7, i32 noundef 0) #2
  %11 = icmp eq ptr %10, null
  br i1 %11, label %12, label %6, !llvm.loop !5

12:                                               ; preds = %9, %6
  %13 = getelementptr inbounds i8, ptr %7, i64 24
  %14 = load ptr, ptr %13, align 8
  %15 = load ptr, ptr %7, align 8
  tail call void @acpi_ps_free_op(ptr noundef nonnull %7) #2
  %16 = icmp eq ptr %7, %0
  br i1 %16, label %21, label %17

17:                                               ; preds = %12
  %18 = icmp eq ptr %14, null
  %19 = select i1 %18, ptr %15, ptr %14
  %20 = icmp eq ptr %19, null
  br i1 %20, label %21, label %3, !llvm.loop !5

21:                                               ; preds = %17, %12, %1
  ret void
}

; Function Attrs: null_pointer_is_valid
declare dso_local ptr @acpi_ps_get_arg(ptr noundef, i32 noundef) local_unnamed_addr #1

; Function Attrs: null_pointer_is_valid
declare dso_local void @acpi_ps_free_op(ptr noundef) local_unnamed_addr #1


!llvm.module.flags = !{!0, !1, !2, !3, !4}

!0 = !{i32 1, !"wchar_size", i32 2}
!1 = !{i32 8, !"cf-protection-branch", i32 1}
!2 = !{i32 4, !"function_return_thunk_extern", i32 1}
!3 = !{i32 4, !"indirect_branch_cs_prefix", i32 1}
!4 = !{i32 4, !"SkipRaxSetup", i32 1}
!5 = distinct !{!5, !6, !7}
!6 = !{!"llvm.loop.mustprogress"}
!7 = !{!"llvm.loop.unroll.disable"}
