; ModuleID = 'bench/linux/original/pswalk.ll'
source_filename = "bench/linux/original/pswalk.ll"
target datalayout = "e-m:e-p270:32:32-p271:32:32-p272:64:64-i64:64-i128:128-f80:128-n8:16:32:64-S128"
target triple = "x86_64-unknown-linux-gnu"

; Function Attrs: fn_ret_thunk_extern nounwind null_pointer_is_valid
define dso_local void @acpi_ps_delete_parse_tree(ptr noundef %0) local_unnamed_addr #0 align 16 {
  %2 = icmp eq ptr %0, null
  br i1 %2, label %.loopexit, label %.preheader

.preheader:                                       ; preds = %1, %16
  %3 = phi ptr [ %14, %16 ], [ null, %1 ]
  %4 = phi ptr [ %18, %16 ], [ %0, %1 ]
  br label %5

5:                                                ; preds = %8, %.preheader
  %6 = phi ptr [ %4, %.preheader ], [ %9, %8 ]
  %7 = icmp eq ptr %6, %3
  br i1 %7, label %11, label %8

8:                                                ; preds = %5
  %9 = tail call ptr @acpi_ps_get_arg(ptr noundef nonnull %6, i32 noundef 0) #2
  %10 = icmp eq ptr %9, null
  br i1 %10, label %11, label %5, !llvm.loop !5

11:                                               ; preds = %8, %5
  %.lcssa = phi ptr [ %6, %8 ], [ %3, %5 ]
  %12 = getelementptr inbounds i8, ptr %.lcssa, i64 24
  %13 = load ptr, ptr %12, align 8
  %14 = load ptr, ptr %.lcssa, align 8
  tail call void @acpi_ps_free_op(ptr noundef nonnull %.lcssa) #2
  %15 = icmp eq ptr %.lcssa, %0
  br i1 %15, label %.loopexit, label %16

16:                                               ; preds = %11
  %17 = icmp eq ptr %13, null
  %18 = select i1 %17, ptr %14, ptr %13
  %19 = icmp eq ptr %18, null
  br i1 %19, label %.loopexit, label %.preheader, !llvm.loop !5

.loopexit:                                        ; preds = %16, %11, %1
  ret void
}

; Function Attrs: null_pointer_is_valid
declare dso_local ptr @acpi_ps_get_arg(ptr noundef, i32 noundef) local_unnamed_addr #1

; Function Attrs: null_pointer_is_valid
declare dso_local void @acpi_ps_free_op(ptr noundef) local_unnamed_addr #1


!llvm.module.flags = !{!0, !1, !2, !3, !4}

!0 = !{i32 1, !"wchar_size", i32 2}
!1 = !{i32 8, !"cf-protection-branch", i32 1}
!2 = !{i32 4, !"function_return_thunk_extern", i32 1}
!3 = !{i32 4, !"indirect_branch_cs_prefix", i32 1}
!4 = !{i32 4, !"SkipRaxSetup", i32 1}
!5 = distinct !{!5, !6, !7}
!6 = !{!"llvm.loop.mustprogress"}
!7 = !{!"llvm.loop.unroll.disable"}
